; Function Attrs: mustprogress uwtable
define void @cvAbsDiff(ptr noundef %0, ptr noundef %1, ptr noundef %2) local_unnamed_addr #0 personality ptr @__gxx_personality_v0 {
  %4 = alloca %"class.cv::utils::trace::details::Region", align 8
  %5 = alloca %"class.cv::Mat", align 8
  %6 = alloca %"class.cv::Mat", align 8
  %7 = alloca %"class.std::__cxx11::basic_string", align 8
  %8 = alloca %"class.std::allocator", align 1
  %9 = alloca %"class.cv::_InputArray", align 8
  %10 = alloca %"class.cv::_InputArray", align 8
  %11 = alloca %"class.cv::Mat", align 8
  %12 = alloca %"class.cv::_OutputArray", align 8
  call void @_ZN2cv10cvarrToMatEPKvbbiPNS_10AutoBufferIdLm136EEE(ptr dead_on_unwind nonnull writable sret(%"class.cv::Mat") align 8 %5, ptr noundef %0, i1 noundef zeroext false, i1 noundef zeroext true, i32 noundef 0, ptr noundef null)
  invoke void @_ZN2cv10cvarrToMatEPKvbbiPNS_10AutoBufferIdLm136EEE(ptr dead_on_unwind nonnull writable sret(%"class.cv::Mat") align 8 %6, ptr noundef %2, i1 noundef zeroext false, i1 noundef zeroext true, i32 noundef 0, ptr noundef null)
          to label %13 unwind label %23

13:                                               ; preds = %3
  %14 = getelementptr inbounds i8, ptr %5, i64 64
  %15 = getelementptr inbounds i8, ptr %6, i64 64
  %16 = call noundef zeroext i1 @_ZNK2cv7MatSizeeqERKS0_(ptr noundef nonnull align 8 dereferenceable(8) %14, ptr noundef nonnull align 8 dereferenceable(8) %15) #18
  br i1 %16, label %17, label %25

17:                                               ; preds = %13
  %18 = load i32, ptr %5, align 8
  %19 = load i32, ptr %6, align 8
  %20 = xor i32 %19, %18
  %21 = and i32 %20, 4095
  %22 = icmp eq i32 %21, 0
  br i1 %22, label %33, label %25

23:                                               ; preds = %3
  %24 = landingpad { ptr, i32 }
          cleanup
  br label %60

25:                                               ; preds = %17, %13
  call void @_ZNSaIcEC1Ev(ptr noundef nonnull align 1 dereferenceable(1) %8) #18
  invoke void @_ZNSt7__cxx1112basic_stringIcSt11char_traitsIcESaIcEEC1EPKcRKS3_(ptr noundef nonnull align 8 dereferenceable(32) %7, ptr noundef nonnull @.str.34, ptr noundef nonnull align 1 dereferenceable(1) %8)
          to label %26 unwind label %28

26:                                               ; preds = %25
  invoke void @_ZN2cv5errorEiRKNSt7__cxx1112basic_stringIcSt11char_traitsIcESaIcEEEPKcS9_i(i32 noundef -215, ptr noundef nonnull align 8 dereferenceable(32) %7, ptr noundef nonnull @__func__.cvAbsDiff, ptr noundef nonnull @.str.1, i32 noundef 2138) #19
          to label %27 unwind label %30

27:                                               ; preds = %26
  unreachable

28:                                               ; preds = %25
  %29 = landingpad { ptr, i32 }
          cleanup
  br label %32

30:                                               ; preds = %26
  %31 = landingpad { ptr, i32 }
          cleanup
  call void @_ZNSt7__cxx1112basic_stringIcSt11char_traitsIcESaIcEED1Ev(ptr noundef nonnull align 8 dereferenceable(32) %7) #18
  br label %32

32:                                               ; preds = %30, %28
  %.pn = phi { ptr, i32 } [ %31, %30 ], [ %29, %28 ]
  call void @_ZNSaIcED1Ev(ptr noundef nonnull align 1 dereferenceable(1) %8) #18
  br label %59

33:                                               ; preds = %17
  %34 = getelementptr inbounds i8, ptr %9, i64 16
  store i32 0, ptr %34, align 8
  %35 = getelementptr inbounds i8, ptr %9, i64 20
  store i32 0, ptr %35, align 4
  store i32 16842752, ptr %9, align 8
  %36 = getelementptr inbounds i8, ptr %9, i64 8
  store ptr %5, ptr %36, align 8
  invoke void @_ZN2cv10cvarrToMatEPKvbbiPNS_10AutoBufferIdLm136EEE(ptr dead_on_unwind nonnull writable sret(%"class.cv::Mat") align 8 %11, ptr noundef %1, i1 noundef zeroext false, i1 noundef zeroext true, i32 noundef 0, ptr noundef null)
          to label %37 unwind label %55

37:                                               ; preds = %33
  %38 = getelementptr inbounds i8, ptr %10, i64 16
  store i32 0, ptr %38, align 8
  %39 = getelementptr inbounds i8, ptr %10, i64 20
  store i32 0, ptr %39, align 4
  store i32 16842752, ptr %10, align 8
  %40 = getelementptr inbounds i8, ptr %10, i64 8
  store ptr %11, ptr %40, align 8
  %41 = getelementptr inbounds i8, ptr %12, i64 8
  %42 = getelementptr inbounds i8, ptr %12, i64 16
  store i64 0, ptr %42, align 8
  store i32 33619968, ptr %12, align 8
  store ptr %6, ptr %41, align 8
  call void @llvm.lifetime.start.p0(i64 16, ptr nonnull %4)
  invoke void @_ZN2cv5utils5trace7details6RegionC1ERKNS3_21LocationStaticStorageE(ptr noundef nonnull align 8 dereferenceable(12) %4, ptr noundef nonnull align 8 dereferenceable(32) @_ZZN2cv7absdiffERKNS_11_InputArrayES2_RKNS_12_OutputArrayEE26__cv_trace_location_fn1015)
          to label %.noexc unwind label %57

.noexc:                                           ; preds = %37
  %43 = invoke noundef nonnull align 8 dereferenceable(24) ptr @_ZN2cv7noArrayEv()
          to label %44 unwind label %52

44:                                               ; preds = %.noexc
  invoke fastcc void @_ZN2cvL9arithm_opERKNS_11_InputArrayES2_RKNS_12_OutputArrayES2_iPPFvPKhmS7_mPhmiiPvEbS9_iPFiS7_mS7_mS8_miiS9_E(ptr noundef nonnull align 8 dereferenceable(24) %9, ptr noundef nonnull align 8 dereferenceable(24) %10, ptr noundef nonnull align 8 dereferenceable(24) %12, ptr noundef nonnull align 8 dereferenceable(24) %43, i32 noundef -1, ptr noundef nonnull @_ZZN2cvL13getAbsDiffTabEvE10absDiffTab, i1 noundef zeroext false, ptr noundef null, ptr noundef null)
          to label %45 unwind label %52

45:                                               ; preds = %44
  %46 = getelementptr inbounds i8, ptr %4, i64 8
  %47 = load i32, ptr %46, align 8
  %.not.i.i = icmp eq i32 %47, 0
  br i1 %.not.i.i, label %54, label %48

48:                                               ; preds = %45
  invoke void @_ZN2cv5utils5trace7details6Region7destroyEv(ptr noundef nonnull align 8 dereferenceable(12) %4)
          to label %54 unwind label %49

49:                                               ; preds = %48
  %50 = landingpad { ptr, i32 }
          catch ptr null
  %51 = extractvalue { ptr, i32 } %50, 0
  call void @__clang_call_terminate(ptr %51) #17
  unreachable

52:                                               ; preds = %44, %.noexc
  %53 = landingpad { ptr, i32 }
          cleanup
  call void @_ZN2cv5utils5trace7details6RegionD2Ev(ptr noundef nonnull align 8 dereferenceable(12) %4) #18
  br label %.body

54:                                               ; preds = %48, %45
  call void @llvm.lifetime.end.p0(i64 16, ptr nonnull %4)
  call void @_ZN2cv3MatD1Ev(ptr noundef nonnull align 8 dereferenceable(96) %11) #18
  call void @_ZN2cv3MatD1Ev(ptr noundef nonnull align 8 dereferenceable(96) %6) #18
  call void @_ZN2cv3MatD1Ev(ptr noundef nonnull align 8 dereferenceable(96) %5) #18
  ret void

55:                                               ; preds = %33
  %56 = landingpad { ptr, i32 }
          cleanup
  br label %59

57:                                               ; preds = %37
  %58 = landingpad { ptr, i32 }
          cleanup
  br label %.body

.body:                                            ; preds = %52, %57
  %.pn11.pn = phi { ptr, i32 } [ %58, %57 ], [ %53, %52 ]
  call void @_ZN2cv3MatD1Ev(ptr noundef nonnull align 8 dereferenceable(96) %11) #18
  br label %59

59:                                               ; preds = %55, %.body, %32
  %.pn11.pn.pn.pn = phi { ptr, i32 } [ %.pn, %32 ], [ %.pn11.pn, %.body ], [ %56, %55 ]
  call void @_ZN2cv3MatD1Ev(ptr noundef nonnull align 8 dereferenceable(96) %6) #18
  br label %60

60:                                               ; preds = %59, %23
  %.pn11.pn.pn.pn.pn = phi { ptr, i32 } [ %.pn11.pn.pn.pn, %59 ], [ %24, %23 ]
  call void @_ZN2cv3MatD1Ev(ptr noundef nonnull align 8 dereferenceable(96) %5) #18
  resume { ptr, i32 } %.pn11.pn.pn.pn.pn
}